(i__main__
Juice
p0
(dp1
S'j'
p2
S'Apple'
p3
sS'jstock'
p4
I80
sS'x'
p5
S'|Item number  1|Apple|AED:  8|Stock left   80|Sold   0|Money Obtained   0|'
p6
sS'jno'
p7
I1
sS'jsold'
p8
I0
sS'jmoneyobt'
p9
I0
sS'jc'
p10
I8
sb.(i__main__
Juice
p0
(dp1
S'j'
p2
S'Mango Delight'
p3
sS'jstock'
p4
I80
sS'x'
p5
S'|Item number  2|Mango Delight|AED:  10|Stock left   80|Sold   0|Money Obtained   0|'
p6
sS'jno'
p7
I2
sS'jsold'
p8
I0
sS'jmoneyobt'
p9
I0
sS'jc'
p10
I10
sb.(i__main__
Juice
p0
(dp1
S'j'
p2
S'Pomegranet'
p3
sS'jstock'
p4
I50
sS'x'
p5
S'|Item number  3|Pomegranet|AED:  8|Stock left   50|Sold   0|Money Obtained   0|'
p6
sS'jno'
p7
I3
sS'jsold'
p8
I0
sS'jmoneyobt'
p9
I0
sS'jc'
p10
I8
sb.(i__main__
Juice
p0
(dp1
S'j'
p2
S'Orange'
p3
sS'jstock'
p4
I80
sS'x'
p5
S'|Item number  4|Orange|AED:  10|Stock left   80|Sold   0|Money Obtained   0|'
p6
sS'jno'
p7
I4
sS'jsold'
p8
I0
sS'jmoneyobt'
p9
I0
sS'jc'
p10
I10
sb.(i__main__
Juice
p0
(dp1
S'j'
p2
S'Strawberry'
p3
sS'jstock'
p4
I80
sS'x'
p5
S'|Item number  5|Strawberry|AED:  10|Stock left   80|Sold   0|Money Obtained   0|'
p6
sS'jno'
p7
I5
sS'jsold'
p8
I0
sS'jmoneyobt'
p9
I0
sS'jc'
p10
I10
sb.(i__main__
Juice
p0
(dp1
S'j'
p2
S'Choco Twist'
p3
sS'jstock'
p4
I80
sS'x'
p5
S'|Item number  6|Choco Twist|AED:  10|Stock left   80|Sold   0|Money Obtained   0|'
p6
sS'jno'
p7
I6
sS'jsold'
p8
I0
sS'jmoneyobt'
p9
I0
sS'jc'
p10
I10
sb.(i__main__
Juice
p0
(dp1
S'j'
p2
S'Lemon Mint'
p3
sS'jstock'
p4
I60
sS'x'
p5
S'|Item number  7|Lemon Mint|AED:  10|Stock left   60|Sold   0|Money Obtained   0|'
p6
sS'jno'
p7
I7
sS'jsold'
p8
I0
sS'jmoneyobt'
p9
I0
sS'jc'
p10
I10
sb.